target datalayout = "e-m:e-p270:32:32-p271:32:32-p272:64:64-i64:64-i128:128-f80:128-n8:16:32:64-S128"
target triple = "x86_64-pc-linux-gnu"

%struct.rb_memory_view_item_component_t = type { i8, i8, i8, i64, i64, i64 }

@sym_format = internal global i64 0, align 8
@sym_native_size_p = internal global i64 0, align 8
@sym_offset = internal global i64 0, align 8
@sym_size = internal global i64 0, align 8
@sym_repeat = internal global i64 0, align 8
@sym_endianness = internal global i64 0, align 8
@sym_little_endian = internal global i64 0, align 8
@sym_big_endian = internal global i64 0, align 8

; Function Attrs: inlinehint nounwind sspstrong willreturn memory(none) uwtable
define internal i64 @RB_INT2FIX(i64 noundef %0) #4 {
  %2 = alloca i64, align 8
  %3 = alloca i64, align 8
  %4 = alloca i64, align 8
  %5 = alloca i64, align 8
  %6 = alloca i64, align 8
  %7 = alloca i64, align 8
  store i64 %0, ptr %2, align 8, !tbaa !6
  call void @llvm.lifetime.start.p0(i64 8, ptr %3) #20
  %8 = load i64, ptr %2, align 8, !tbaa !6
  store i64 %8, ptr %3, align 8, !tbaa !6
  call void @llvm.lifetime.start.p0(i64 8, ptr %4) #20
  %9 = load i64, ptr %3, align 8, !tbaa !6
  %10 = shl i64 %9, 1
  %11 = add i64 %10, 1
  store i64 %11, ptr %4, align 8, !tbaa !6
  call void @llvm.lifetime.start.p0(i64 8, ptr %5) #20
  %12 = load i64, ptr %4, align 8, !tbaa !6
  store i64 %12, ptr %5, align 8, !tbaa !6
  call void @llvm.lifetime.start.p0(i64 8, ptr %6) #20
  %13 = load i64, ptr %5, align 8, !tbaa !6
  store i64 %13, ptr %6, align 8, !tbaa !6
  call void @llvm.lifetime.start.p0(i64 8, ptr %7) #20
  %14 = load i64, ptr %6, align 8, !tbaa !6
  store i64 %14, ptr %7, align 8, !tbaa !6
  %15 = load i64, ptr %7, align 8, !tbaa !6
  call void @llvm.lifetime.end.p0(i64 8, ptr %7) #20
  call void @llvm.lifetime.end.p0(i64 8, ptr %6) #20
  call void @llvm.lifetime.end.p0(i64 8, ptr %5) #20
  call void @llvm.lifetime.end.p0(i64 8, ptr %4) #20
  call void @llvm.lifetime.end.p0(i64 8, ptr %3) #20
  ret i64 %15
}

; Function Attrs: inlinehint nounwind sspstrong uwtable
define internal i64 @rb_ll2num_inline(i64 noundef %0) #5 {
  %2 = alloca i64, align 8
  %3 = alloca i64, align 8
  store i64 %0, ptr %3, align 8, !tbaa !44
  %4 = load i64, ptr %3, align 8, !tbaa !44
  %5 = icmp slt i64 %4, 4611686018427387904
  br i1 %5, label %6, label %12

6:                                                ; preds = %1
  %7 = load i64, ptr %3, align 8, !tbaa !44
  %8 = icmp sge i64 %7, -4611686018427387904
  br i1 %8, label %9, label %12

9:                                                ; preds = %6
  %10 = load i64, ptr %3, align 8, !tbaa !44
  %11 = call i64 @RB_INT2FIX(i64 noundef %10) #22
  store i64 %11, ptr %2, align 8
  br label %15

12:                                               ; preds = %6, %1
  %13 = load i64, ptr %3, align 8, !tbaa !44
  %14 = call i64 @rb_ll2inum(i64 noundef %13)
  store i64 %14, ptr %2, align 8
  br label %15

15:                                               ; preds = %12, %9
  %16 = load i64, ptr %2, align 8
  ret i64 %16
}

; Function Attrs: inlinehint nounwind sspstrong willreturn memory(none) uwtable
define internal zeroext i1 @RB_NIL_P(i64 noundef %0) #4 {
  %2 = alloca i64, align 8
  store i64 %0, ptr %2, align 8, !tbaa !6
  %3 = load i64, ptr %2, align 8, !tbaa !6
  %4 = icmp eq i64 %3, 4
  ret i1 %4
}

; Function Attrs: nounwind sspstrong uwtable
define internal i64 @memory_view_parse_item_format(i64 noundef %0, i64 noundef %1) #0 {
  %3 = alloca i64, align 8
  %4 = alloca i64, align 8
  %5 = alloca ptr, align 8
  %6 = alloca ptr, align 8
  %7 = alloca ptr, align 8
  %8 = alloca i64, align 8
  %9 = alloca i64, align 8
  %10 = alloca i64, align 8
  %11 = alloca i64, align 8
  %12 = alloca i64, align 8
  %13 = alloca i64, align 8
  store i64 %0, ptr %3, align 8, !tbaa !6
  store i64 %1, ptr %4, align 8, !tbaa !6
  call void @llvm.lifetime.start.p0(i64 8, ptr %5) #20
  store ptr null, ptr %5, align 8, !tbaa !12
  %14 = load i64, ptr %4, align 8, !tbaa !6
  %15 = call zeroext i1 @RB_NIL_P(i64 noundef %14) #22
  br i1 %15, label %18, label %16

16:                                               ; preds = %2
  %17 = call ptr @rb_string_value_cstr(ptr noundef %4)
  store ptr %17, ptr %5, align 8, !tbaa !12
  br label %18

18:                                               ; preds = %16, %2
  call void @llvm.lifetime.start.p0(i64 8, ptr %6) #20
  store ptr null, ptr %6, align 8, !tbaa !12
  call void @llvm.lifetime.start.p0(i64 8, ptr %7) #20
  call void @llvm.lifetime.start.p0(i64 8, ptr %8) #20
  call void @llvm.lifetime.start.p0(i64 8, ptr %9) #20
  %19 = load ptr, ptr %5, align 8, !tbaa !12
  %20 = call i64 @rb_memory_view_parse_item_format(ptr noundef %19, ptr noundef %7, ptr noundef %8, ptr noundef %6)
  store i64 %20, ptr %9, align 8, !tbaa !6
  call void @llvm.lifetime.start.p0(i64 8, ptr %10) #20
  %21 = call i64 @rb_ary_new_capa(i64 noundef 3)
  store i64 %21, ptr %10, align 8, !tbaa !6
  %22 = load i64, ptr %10, align 8, !tbaa !6
  %23 = load i64, ptr %9, align 8, !tbaa !6
  %24 = call i64 @rb_ll2num_inline(i64 noundef %23)
  %25 = call i64 @rb_ary_push(i64 noundef %22, i64 noundef %24)
  %26 = load ptr, ptr %6, align 8, !tbaa !12
  %27 = icmp ne ptr %26, null
  br i1 %27, label %114, label %28

28:                                               ; preds = %18
  call void @llvm.lifetime.start.p0(i64 8, ptr %11) #20
  %29 = load i64, ptr %8, align 8, !tbaa !6
  %30 = call i64 @rb_ary_new_capa(i64 noundef %29)
  store i64 %30, ptr %11, align 8, !tbaa !6
  call void @llvm.lifetime.start.p0(i64 8, ptr %12) #20
  store i64 0, ptr %12, align 8, !tbaa !6
  br label %31

31:                                               ; preds = %104, %28
  %32 = load i64, ptr %12, align 8, !tbaa !6
  %33 = load i64, ptr %8, align 8, !tbaa !6
  %34 = icmp ult i64 %32, %33
  br i1 %34, label %35, label %107

35:                                               ; preds = %31
  call void @llvm.lifetime.start.p0(i64 8, ptr %13) #20
  %36 = call i64 @rb_hash_new()
  store i64 %36, ptr %13, align 8, !tbaa !6
  %37 = load i64, ptr %13, align 8, !tbaa !6
  %38 = load i64, ptr @sym_format, align 8, !tbaa !6
  br i1 false, label %39, label %40

39:                                               ; preds = %35
  br label %40

40:                                               ; preds = %39, %35
  %41 = phi i1 [ false, %35 ], [ true, %39 ]
  %42 = select i1 %41, ptr @rb_str_new_static, ptr @rb_str_new
  %43 = load ptr, ptr %7, align 8, !tbaa !15
  %44 = load i64, ptr %12, align 8, !tbaa !6
  %45 = getelementptr inbounds nuw %struct.rb_memory_view_item_component_t, ptr %43, i64 %44
  %46 = getelementptr inbounds nuw %struct.rb_memory_view_item_component_t, ptr %45, i32 0, i32 0
  %47 = call i64 %42(ptr noundef %46, i64 noundef 1)
  %48 = call i64 @rb_hash_aset(i64 noundef %37, i64 noundef %38, i64 noundef %47)
  %49 = load i64, ptr %13, align 8, !tbaa !6
  %50 = load i64, ptr @sym_native_size_p, align 8, !tbaa !6
  %51 = load ptr, ptr %7, align 8, !tbaa !15
  %52 = load i64, ptr %12, align 8, !tbaa !6
  %53 = getelementptr inbounds nuw %struct.rb_memory_view_item_component_t, ptr %51, i64 %52
  %54 = getelementptr inbounds nuw %struct.rb_memory_view_item_component_t, ptr %53, i32 0, i32 1
  %55 = load i8, ptr %54, align 1, !tbaa !16, !range !19, !noundef !20
  %56 = trunc i8 %55 to i1
  %57 = select i1 %56, i64 20, i64 0
  %58 = call i64 @rb_hash_aset(i64 noundef %49, i64 noundef %50, i64 noundef %57)
  %59 = load i64, ptr %13, align 8, !tbaa !6
  %60 = load i64, ptr @sym_endianness, align 8, !tbaa !6
  %61 = load ptr, ptr %7, align 8, !tbaa !15
  %62 = load i64, ptr %12, align 8, !tbaa !6
  %63 = getelementptr inbounds nuw %struct.rb_memory_view_item_component_t, ptr %61, i64 %62
  %64 = getelementptr inbounds nuw %struct.rb_memory_view_item_component_t, ptr %63, i32 0, i32 2
  %65 = load i8, ptr %64, align 2, !tbaa !21, !range !19, !noundef !20
  %66 = trunc i8 %65 to i1
  br i1 %66, label %67, label %69

67:                                               ; preds = %40
  %68 = load i64, ptr @sym_little_endian, align 8, !tbaa !6
  br label %71

69:                                               ; preds = %40
  %70 = load i64, ptr @sym_big_endian, align 8, !tbaa !6
  br label %71

71:                                               ; preds = %69, %67
  %72 = phi i64 [ %68, %67 ], [ %70, %69 ]
  %73 = call i64 @rb_hash_aset(i64 noundef %59, i64 noundef %60, i64 noundef %72)
  %74 = load i64, ptr %13, align 8, !tbaa !6
  %75 = load i64, ptr @sym_offset, align 8, !tbaa !6
  %76 = load ptr, ptr %7, align 8, !tbaa !15
  %77 = load i64, ptr %12, align 8, !tbaa !6
  %78 = getelementptr inbounds nuw %struct.rb_memory_view_item_component_t, ptr %76, i64 %77
  %79 = getelementptr inbounds nuw %struct.rb_memory_view_item_component_t, ptr %78, i32 0, i32 3
  %80 = load i64, ptr %79, align 8, !tbaa !22
  %81 = call i64 @rb_ll2num_inline(i64 noundef %80)
  %82 = call i64 @rb_hash_aset(i64 noundef %74, i64 noundef %75, i64 noundef %81)
  %83 = load i64, ptr %13, align 8, !tbaa !6
  %84 = load i64, ptr @sym_size, align 8, !tbaa !6
  %85 = load ptr, ptr %7, align 8, !tbaa !15
  %86 = load i64, ptr %12, align 8, !tbaa !6
  %87 = getelementptr inbounds nuw %struct.rb_memory_view_item_component_t, ptr %85, i64 %86
  %88 = getelementptr inbounds nuw %struct.rb_memory_view_item_component_t, ptr %87, i32 0, i32 4
  %89 = load i64, ptr %88, align 8, !tbaa !23
  %90 = call i64 @rb_ll2num_inline(i64 noundef %89)
  %91 = call i64 @rb_hash_aset(i64 noundef %83, i64 noundef %84, i64 noundef %90)
  %92 = load i64, ptr %13, align 8, !tbaa !6
  %93 = load i64, ptr @sym_repeat, align 8, !tbaa !6
  %94 = load ptr, ptr %7, align 8, !tbaa !15
  %95 = load i64, ptr %12, align 8, !tbaa !6
  %96 = getelementptr inbounds nuw %struct.rb_memory_view_item_component_t, ptr %94, i64 %95
  %97 = getelementptr inbounds nuw %struct.rb_memory_view_item_component_t, ptr %96, i32 0, i32 5
  %98 = load i64, ptr %97, align 8, !tbaa !24
  %99 = call i64 @rb_ll2num_inline(i64 noundef %98)
  %100 = call i64 @rb_hash_aset(i64 noundef %92, i64 noundef %93, i64 noundef %99)
  %101 = load i64, ptr %11, align 8, !tbaa !6
  %102 = load i64, ptr %13, align 8, !tbaa !6
  %103 = call i64 @rb_ary_push(i64 noundef %101, i64 noundef %102)
  call void @llvm.lifetime.end.p0(i64 8, ptr %13) #20
  br label %104

104:                                              ; preds = %71
  %105 = load i64, ptr %12, align 8, !tbaa !6
  %106 = add i64 %105, 1
  store i64 %106, ptr %12, align 8, !tbaa !6
  br label %31, !llvm.loop !25

107:                                              ; preds = %31
  %108 = load ptr, ptr %7, align 8, !tbaa !15
  call void @ruby_xfree(ptr noundef %108)
  %109 = load i64, ptr %10, align 8, !tbaa !6
  %110 = load i64, ptr %11, align 8, !tbaa !6
  %111 = call i64 @rb_ary_push(i64 noundef %109, i64 noundef %110)
  %112 = load i64, ptr %10, align 8, !tbaa !6
  %113 = call i64 @rb_ary_push(i64 noundef %112, i64 noundef 4)
  call void @llvm.lifetime.end.p0(i64 8, ptr %12) #20
  call void @llvm.lifetime.end.p0(i64 8, ptr %11) #20
  br label %121

114:                                              ; preds = %18
  %115 = load i64, ptr %10, align 8, !tbaa !6
  %116 = call i64 @rb_ary_push(i64 noundef %115, i64 noundef 4)
  %117 = load i64, ptr %10, align 8, !tbaa !6
  %118 = load ptr, ptr %6, align 8, !tbaa !12
  %119 = call i64 @rb_str_new_cstr(ptr noundef %118)
  %120 = call i64 @rb_ary_push(i64 noundef %117, i64 noundef %119)
  br label %121

121:                                              ; preds = %114, %107
  %122 = load i64, ptr %10, align 8, !tbaa !6
  call void @llvm.lifetime.end.p0(i64 8, ptr %10) #20
  call void @llvm.lifetime.end.p0(i64 8, ptr %9) #20
  call void @llvm.lifetime.end.p0(i64 8, ptr %8) #20
  call void @llvm.lifetime.end.p0(i64 8, ptr %7) #20
  call void @llvm.lifetime.end.p0(i64 8, ptr %6) #20
  call void @llvm.lifetime.end.p0(i64 8, ptr %5) #20
  ret i64 %122
}