; Function Attrs: nounwind sspstrong uwtable
define internal i64 @memory_view_parse_item_format(i64 %0, i64 noundef %1) #0 {
  %3 = alloca i64, align 8
  %4 = alloca ptr, align 8
  %5 = alloca ptr, align 8
  %6 = alloca i64, align 8
  store i64 %1, ptr %3, align 8, !tbaa !6
  %7 = icmp eq i64 %1, 4
  br i1 %7, label %10, label %8

8:                                                ; preds = %2
  %9 = call ptr @rb_string_value_cstr(ptr noundef nonnull %3) #9
  br label %10

10:                                               ; preds = %8, %2
  %.0 = phi ptr [ null, %2 ], [ %9, %8 ]
  call void @llvm.lifetime.start.p0(i64 8, ptr nonnull %4) #9
  store ptr null, ptr %4, align 8, !tbaa !10
  call void @llvm.lifetime.start.p0(i64 8, ptr nonnull %5) #9
  call void @llvm.lifetime.start.p0(i64 8, ptr nonnull %6) #9
  %11 = call i64 @rb_memory_view_parse_item_format(ptr noundef %.0, ptr noundef nonnull %5, ptr noundef nonnull %6, ptr noundef nonnull %4) #9
  %12 = call i64 @rb_ary_new_capa(i64 noundef 3) #9
  %13 = add i64 %11, 4611686018427387904
  %or.cond.i = icmp sgt i64 %13, -1
  br i1 %or.cond.i, label %14, label %17

14:                                               ; preds = %10
  %15 = shl nsw i64 %11, 1
  %16 = or disjoint i64 %15, 1
  br label %rb_ll2num_inline.exit

17:                                               ; preds = %10
  %18 = call i64 @rb_ll2inum(i64 noundef %11) #9
  br label %rb_ll2num_inline.exit

rb_ll2num_inline.exit:                            ; preds = %14, %17
  %.0.i = phi i64 [ %16, %14 ], [ %18, %17 ]
  %19 = call i64 @rb_ary_push(i64 noundef %12, i64 noundef %.0.i) #9
  %20 = load ptr, ptr %4, align 8, !tbaa !10
  %.not = icmp eq ptr %20, null
  br i1 %.not, label %21, label %86

21:                                               ; preds = %rb_ll2num_inline.exit
  %22 = load i64, ptr %6, align 8, !tbaa !6
  %23 = call i64 @rb_ary_new_capa(i64 noundef %22) #9
  %24 = load i64, ptr %6, align 8, !tbaa !6
  %.not35 = icmp eq i64 %24, 0
  br i1 %.not35, label %._crit_edge, label %.lr.ph

.lr.ph:                                           ; preds = %21, %rb_ll2num_inline.exit33
  %.02434 = phi i64 [ %81, %rb_ll2num_inline.exit33 ], [ 0, %21 ]
  %25 = call i64 @rb_hash_new() #9
  %26 = load i64, ptr @sym_format, align 8, !tbaa !6
  %27 = load ptr, ptr %5, align 8, !tbaa !13
  %28 = getelementptr inbounds nuw %struct.rb_memory_view_item_component_t, ptr %27, i64 %.02434
  %29 = call i64 @rb_str_new(ptr noundef %28, i64 noundef 1) #9
  %30 = call i64 @rb_hash_aset(i64 noundef %25, i64 noundef %26, i64 noundef %29) #9
  %31 = load i64, ptr @sym_native_size_p, align 8, !tbaa !6
  %32 = load ptr, ptr %5, align 8, !tbaa !13
  %33 = getelementptr inbounds nuw %struct.rb_memory_view_item_component_t, ptr %32, i64 %.02434, i32 1
  %34 = load i8, ptr %33, align 1, !tbaa !14, !range !17, !noundef !18
  %35 = trunc nuw i8 %34 to i1
  %36 = select i1 %35, i64 20, i64 0
  %37 = call i64 @rb_hash_aset(i64 noundef %25, i64 noundef %31, i64 noundef %36) #9
  %38 = load i64, ptr @sym_endianness, align 8, !tbaa !6
  %39 = load ptr, ptr %5, align 8, !tbaa !13
  %40 = getelementptr inbounds nuw %struct.rb_memory_view_item_component_t, ptr %39, i64 %.02434, i32 2
  %41 = load i8, ptr %40, align 2, !tbaa !19, !range !17, !noundef !18
  %42 = trunc nuw i8 %41 to i1
  %43 = load i64, ptr @sym_little_endian, align 8
  %44 = load i64, ptr @sym_big_endian, align 8
  %45 = select i1 %42, i64 %43, i64 %44
  %46 = call i64 @rb_hash_aset(i64 noundef %25, i64 noundef %38, i64 noundef %45) #9
  %47 = load i64, ptr @sym_offset, align 8, !tbaa !6
  %48 = load ptr, ptr %5, align 8, !tbaa !13
  %49 = getelementptr inbounds nuw %struct.rb_memory_view_item_component_t, ptr %48, i64 %.02434, i32 3
  %50 = load i64, ptr %49, align 8, !tbaa !20
  %51 = add i64 %50, 4611686018427387904
  %or.cond.i25 = icmp sgt i64 %51, -1
  br i1 %or.cond.i25, label %52, label %55

52:                                               ; preds = %.lr.ph
  %53 = shl nsw i64 %50, 1
  %54 = or disjoint i64 %53, 1
  br label %rb_ll2num_inline.exit27

55:                                               ; preds = %.lr.ph
  %56 = call i64 @rb_ll2inum(i64 noundef %50) #9
  br label %rb_ll2num_inline.exit27

rb_ll2num_inline.exit27:                          ; preds = %52, %55
  %.0.i26 = phi i64 [ %54, %52 ], [ %56, %55 ]
  %57 = call i64 @rb_hash_aset(i64 noundef %25, i64 noundef %47, i64 noundef %.0.i26) #9
  %58 = load i64, ptr @sym_size, align 8, !tbaa !6
  %59 = load ptr, ptr %5, align 8, !tbaa !13
  %60 = getelementptr inbounds nuw %struct.rb_memory_view_item_component_t, ptr %59, i64 %.02434, i32 4
  %61 = load i64, ptr %60, align 8, !tbaa !21
  %62 = add i64 %61, 4611686018427387904
  %or.cond.i28 = icmp sgt i64 %62, -1
  br i1 %or.cond.i28, label %63, label %66

63:                                               ; preds = %rb_ll2num_inline.exit27
  %64 = shl nsw i64 %61, 1
  %65 = or disjoint i64 %64, 1
  br label %rb_ll2num_inline.exit30

66:                                               ; preds = %rb_ll2num_inline.exit27
  %67 = call i64 @rb_ll2inum(i64 noundef %61) #9
  br label %rb_ll2num_inline.exit30

rb_ll2num_inline.exit30:                          ; preds = %63, %66
  %.0.i29 = phi i64 [ %65, %63 ], [ %67, %66 ]
  %68 = call i64 @rb_hash_aset(i64 noundef %25, i64 noundef %58, i64 noundef %.0.i29) #9
  %69 = load i64, ptr @sym_repeat, align 8, !tbaa !6
  %70 = load ptr, ptr %5, align 8, !tbaa !13
  %71 = getelementptr inbounds nuw %struct.rb_memory_view_item_component_t, ptr %70, i64 %.02434, i32 5
  %72 = load i64, ptr %71, align 8, !tbaa !22
  %73 = add i64 %72, 4611686018427387904
  %or.cond.i31 = icmp sgt i64 %73, -1
  br i1 %or.cond.i31, label %74, label %77

74:                                               ; preds = %rb_ll2num_inline.exit30
  %75 = shl nsw i64 %72, 1
  %76 = or disjoint i64 %75, 1
  br label %rb_ll2num_inline.exit33

77:                                               ; preds = %rb_ll2num_inline.exit30
  %78 = call i64 @rb_ll2inum(i64 noundef %72) #9
  br label %rb_ll2num_inline.exit33

rb_ll2num_inline.exit33:                          ; preds = %74, %77
  %.0.i32 = phi i64 [ %76, %74 ], [ %78, %77 ]
  %79 = call i64 @rb_hash_aset(i64 noundef %25, i64 noundef %69, i64 noundef %.0.i32) #9
  %80 = call i64 @rb_ary_push(i64 noundef %23, i64 noundef %25) #9
  %81 = add nuw i64 %.02434, 1
  %82 = load i64, ptr %6, align 8, !tbaa !6
  %83 = icmp ult i64 %81, %82
  br i1 %83, label %.lr.ph, label %._crit_edge, !llvm.loop !23

._crit_edge:                                      ; preds = %rb_ll2num_inline.exit33, %21
  %84 = load ptr, ptr %5, align 8, !tbaa !13
  call void @ruby_xfree(ptr noundef %84) #9
  %85 = call i64 @rb_ary_push(i64 noundef %12, i64 noundef %23) #9
  br label %90

86:                                               ; preds = %rb_ll2num_inline.exit
  %87 = call i64 @rb_ary_push(i64 noundef %12, i64 noundef 4) #9
  %88 = load ptr, ptr %4, align 8, !tbaa !10
  %89 = call i64 @rb_str_new_cstr(ptr noundef %88) #9
  br label %90

90:                                               ; preds = %86, %._crit_edge
  %.sink = phi i64 [ %89, %86 ], [ 4, %._crit_edge ]
  %91 = call i64 @rb_ary_push(i64 noundef %12, i64 noundef %.sink) #9
  call void @llvm.lifetime.end.p0(i64 8, ptr nonnull %6) #9
  call void @llvm.lifetime.end.p0(i64 8, ptr nonnull %5) #9
  call void @llvm.lifetime.end.p0(i64 8, ptr nonnull %4) #9
  ret i64 %12
}